target datalayout = "e-m:e-p270:32:32-p271:32:32-p272:64:64-i64:64-i128:128-f80:128-n8:16:32:64-S128"
target triple = "x86_64-pc-linux-gnu"

%struct.Scl_Item_t_ = type { i32, i32, %struct.Scl_Pair_t_, %struct.Scl_Pair_t_, %struct.Scl_Pair_t_, i32, i32 }
%struct.Scl_Pair_t_ = type { i32, i32 }
%struct.Scl_Tree_t_ = type { ptr, ptr, i64, i32, i32, i32, ptr, ptr, i64, ptr }

@.str.25 = private unnamed_addr constant [19 x i8] c"cell_leakage_power\00", align 1
@.str.26 = private unnamed_addr constant [14 x i8] c"leakage_power\00", align 1
@.str.27 = private unnamed_addr constant [5 x i8] c"when\00", align 1
@.str.28 = private unnamed_addr constant [6 x i8] c"value\00", align 1

; Function Attrs: nounwind uwtable
define internal i32 @Scl_LibertyCompare(ptr noundef %0, i64 %1, ptr noundef %2) #0 {
  %4 = alloca %struct.Scl_Pair_t_, align 4
  %5 = alloca ptr, align 8
  %6 = alloca ptr, align 8
  store i64 %1, ptr %4, align 4
  store ptr %0, ptr %5, align 8
  store ptr %2, ptr %6, align 8
  %7 = load ptr, ptr %5, align 8
  %8 = getelementptr inbounds %struct.Scl_Tree_t_, ptr %7, i32 0, i32 1
  %9 = load ptr, ptr %8, align 8
  %10 = getelementptr inbounds %struct.Scl_Pair_t_, ptr %4, i32 0, i32 0
  %11 = load i32, ptr %10, align 4
  %12 = sext i32 %11 to i64
  %13 = getelementptr inbounds i8, ptr %9, i64 %12
  %14 = load ptr, ptr %6, align 8
  %15 = getelementptr inbounds %struct.Scl_Pair_t_, ptr %4, i32 0, i32 1
  %16 = load i32, ptr %15, align 4
  %17 = getelementptr inbounds %struct.Scl_Pair_t_, ptr %4, i32 0, i32 0
  %18 = load i32, ptr %17, align 4
  %19 = sub nsw i32 %16, %18
  %20 = sext i32 %19 to i64
  %21 = call i32 @strncmp(ptr noundef %13, ptr noundef %14, i64 noundef %20) #11
  %22 = icmp ne i32 %21, 0
  br i1 %22, label %33, label %23

23:                                               ; preds = %3
  %24 = load ptr, ptr %6, align 8
  %25 = call i64 @strlen(ptr noundef %24) #11
  %26 = trunc i64 %25 to i32
  %27 = getelementptr inbounds %struct.Scl_Pair_t_, ptr %4, i32 0, i32 1
  %28 = load i32, ptr %27, align 4
  %29 = getelementptr inbounds %struct.Scl_Pair_t_, ptr %4, i32 0, i32 0
  %30 = load i32, ptr %29, align 4
  %31 = sub nsw i32 %28, %30
  %32 = icmp ne i32 %26, %31
  br label %33

33:                                               ; preds = %23, %3
  %34 = phi i1 [ true, %3 ], [ %32, %23 ]
  %35 = zext i1 %34 to i32
  ret i32 %35
}

; Function Attrs: nounwind uwtable
define internal ptr @Scl_LibertyItem(ptr noundef %0, i32 noundef %1) #0 {
  %3 = alloca ptr, align 8
  %4 = alloca i32, align 4
  store ptr %0, ptr %3, align 8
  store i32 %1, ptr %4, align 4
  %5 = load i32, ptr %4, align 4
  %6 = icmp slt i32 %5, 0
  br i1 %6, label %7, label %8

7:                                                ; preds = %2
  br label %15

8:                                                ; preds = %2
  %9 = load ptr, ptr %3, align 8
  %10 = getelementptr inbounds %struct.Scl_Tree_t_, ptr %9, i32 0, i32 6
  %11 = load ptr, ptr %10, align 8
  %12 = load i32, ptr %4, align 4
  %13 = sext i32 %12 to i64
  %14 = getelementptr inbounds %struct.Scl_Item_t_, ptr %11, i64 %13
  br label %15

15:                                               ; preds = %8, %7
  %16 = phi ptr [ null, %7 ], [ %14, %8 ]
  ret ptr %16
}

; Function Attrs: nounwind uwtable
define ptr @Scl_LibertyReadCellLeakage(ptr noundef %0, ptr noundef %1) #0 {
  %3 = alloca ptr, align 8
  %4 = alloca ptr, align 8
  %5 = alloca ptr, align 8
  %6 = alloca ptr, align 8
  %7 = alloca ptr, align 8
  store ptr %0, ptr %4, align 8
  store ptr %1, ptr %5, align 8
  %8 = load ptr, ptr %4, align 8
  %9 = load ptr, ptr %5, align 8
  %10 = getelementptr inbounds %struct.Scl_Item_t_, ptr %9, i32 0, i32 6
  %11 = load i32, ptr %10, align 4
  %12 = call ptr @Scl_LibertyItem(ptr noundef %8, i32 noundef %11)
  store ptr %12, ptr %6, align 8
  br label %13

13:                                               ; preds = %31, %2
  %14 = load ptr, ptr %6, align 8
  %15 = icmp ne ptr %14, null
  br i1 %15, label %16, label %37

16:                                               ; preds = %13
  %17 = load ptr, ptr %4, align 8
  %18 = load ptr, ptr %6, align 8
  %19 = getelementptr inbounds %struct.Scl_Item_t_, ptr %18, i32 0, i32 2
  %20 = load i64, ptr %19, align 4
  %21 = call i32 @Scl_LibertyCompare(ptr noundef %17, i64 %20, ptr noundef @.str.25)
  %22 = icmp ne i32 %21, 0
  br i1 %22, label %23, label %24

23:                                               ; preds = %16
  br label %30

24:                                               ; preds = %16
  %25 = load ptr, ptr %4, align 8
  %26 = load ptr, ptr %6, align 8
  %27 = getelementptr inbounds %struct.Scl_Item_t_, ptr %26, i32 0, i32 3
  %28 = load i64, ptr %27, align 4
  %29 = call ptr @Scl_LibertyReadString(ptr noundef %25, i64 %28)
  store ptr %29, ptr %3, align 8
  br label %129

30:                                               ; preds = %23
  br label %31

31:                                               ; preds = %30
  %32 = load ptr, ptr %4, align 8
  %33 = load ptr, ptr %6, align 8
  %34 = getelementptr inbounds %struct.Scl_Item_t_, ptr %33, i32 0, i32 5
  %35 = load i32, ptr %34, align 4
  %36 = call ptr @Scl_LibertyItem(ptr noundef %32, i32 noundef %35)
  store ptr %36, ptr %6, align 8
  br label %13, !llvm.loop !27

37:                                               ; preds = %13
  %38 = load ptr, ptr %4, align 8
  %39 = load ptr, ptr %5, align 8
  %40 = getelementptr inbounds %struct.Scl_Item_t_, ptr %39, i32 0, i32 6
  %41 = load i32, ptr %40, align 4
  %42 = call ptr @Scl_LibertyItem(ptr noundef %38, i32 noundef %41)
  store ptr %42, ptr %6, align 8
  br label %43

43:                                               ; preds = %122, %37
  %44 = load ptr, ptr %6, align 8
  %45 = icmp ne ptr %44, null
  br i1 %45, label %46, label %128

46:                                               ; preds = %43
  %47 = load ptr, ptr %4, align 8
  %48 = load ptr, ptr %6, align 8
  %49 = getelementptr inbounds %struct.Scl_Item_t_, ptr %48, i32 0, i32 2
  %50 = load i64, ptr %49, align 4
  %51 = call i32 @Scl_LibertyCompare(ptr noundef %47, i64 %50, ptr noundef @.str.26)
  %52 = icmp ne i32 %51, 0
  br i1 %52, label %53, label %54

53:                                               ; preds = %46
  br label %121

54:                                               ; preds = %46
  %55 = load ptr, ptr %4, align 8
  %56 = load ptr, ptr %6, align 8
  %57 = getelementptr inbounds %struct.Scl_Item_t_, ptr %56, i32 0, i32 6
  %58 = load i32, ptr %57, align 4
  %59 = call ptr @Scl_LibertyItem(ptr noundef %55, i32 noundef %58)
  store ptr %59, ptr %7, align 8
  br label %60

60:                                               ; preds = %73, %54
  %61 = load ptr, ptr %7, align 8
  %62 = icmp ne ptr %61, null
  br i1 %62, label %63, label %79

63:                                               ; preds = %60
  %64 = load ptr, ptr %4, align 8
  %65 = load ptr, ptr %7, align 8
  %66 = getelementptr inbounds %struct.Scl_Item_t_, ptr %65, i32 0, i32 2
  %67 = load i64, ptr %66, align 4
  %68 = call i32 @Scl_LibertyCompare(ptr noundef %64, i64 %67, ptr noundef @.str.27)
  %69 = icmp ne i32 %68, 0
  br i1 %69, label %70, label %71

70:                                               ; preds = %63
  br label %72

71:                                               ; preds = %63
  br label %79

72:                                               ; preds = %70
  br label %73

73:                                               ; preds = %72
  %74 = load ptr, ptr %4, align 8
  %75 = load ptr, ptr %7, align 8
  %76 = getelementptr inbounds %struct.Scl_Item_t_, ptr %75, i32 0, i32 5
  %77 = load i32, ptr %76, align 4
  %78 = call ptr @Scl_LibertyItem(ptr noundef %74, i32 noundef %77)
  store ptr %78, ptr %7, align 8
  br label %60, !llvm.loop !28

79:                                               ; preds = %71, %60
  %80 = load ptr, ptr %7, align 8
  %81 = icmp ne ptr %80, null
  br i1 %81, label %82, label %90

82:                                               ; preds = %79
  %83 = load ptr, ptr %4, align 8
  %84 = load ptr, ptr %7, align 8
  %85 = getelementptr inbounds %struct.Scl_Item_t_, ptr %84, i32 0, i32 2
  %86 = load i64, ptr %85, align 4
  %87 = call i32 @Scl_LibertyCompare(ptr noundef %83, i64 %86, ptr noundef @.str.27)
  %88 = icmp ne i32 %87, 0
  br i1 %88, label %90, label %89

89:                                               ; preds = %82
  br label %122

90:                                               ; preds = %82, %79
  %91 = load ptr, ptr %4, align 8
  %92 = load ptr, ptr %6, align 8
  %93 = getelementptr inbounds %struct.Scl_Item_t_, ptr %92, i32 0, i32 6
  %94 = load i32, ptr %93, align 4
  %95 = call ptr @Scl_LibertyItem(ptr noundef %91, i32 noundef %94)
  store ptr %95, ptr %7, align 8
  br label %96

96:                                               ; preds = %114, %90
  %97 = load ptr, ptr %7, align 8
  %98 = icmp ne ptr %97, null
  br i1 %98, label %99, label %120

99:                                               ; preds = %96
  %100 = load ptr, ptr %4, align 8
  %101 = load ptr, ptr %7, align 8
  %102 = getelementptr inbounds %struct.Scl_Item_t_, ptr %101, i32 0, i32 2
  %103 = load i64, ptr %102, align 4
  %104 = call i32 @Scl_LibertyCompare(ptr noundef %100, i64 %103, ptr noundef @.str.28)
  %105 = icmp ne i32 %104, 0
  br i1 %105, label %106, label %107

106:                                              ; preds = %99
  br label %113

107:                                              ; preds = %99
  %108 = load ptr, ptr %4, align 8
  %109 = load ptr, ptr %7, align 8
  %110 = getelementptr inbounds %struct.Scl_Item_t_, ptr %109, i32 0, i32 3
  %111 = load i64, ptr %110, align 4
  %112 = call ptr @Scl_LibertyReadString(ptr noundef %108, i64 %111)
  store ptr %112, ptr %3, align 8
  br label %129

113:                                              ; preds = %106
  br label %114

114:                                              ; preds = %113
  %115 = load ptr, ptr %4, align 8
  %116 = load ptr, ptr %7, align 8
  %117 = getelementptr inbounds %struct.Scl_Item_t_, ptr %116, i32 0, i32 5
  %118 = load i32, ptr %117, align 4
  %119 = call ptr @Scl_LibertyItem(ptr noundef %115, i32 noundef %118)
  store ptr %119, ptr %7, align 8
  br label %96, !llvm.loop !29

120:                                              ; preds = %96
  br label %121

121:                                              ; preds = %120, %53
  br label %122

122:                                              ; preds = %121, %89
  %123 = load ptr, ptr %4, align 8
  %124 = load ptr, ptr %6, align 8
  %125 = getelementptr inbounds %struct.Scl_Item_t_, ptr %124, i32 0, i32 5
  %126 = load i32, ptr %125, align 4
  %127 = call ptr @Scl_LibertyItem(ptr noundef %123, i32 noundef %126)
  store ptr %127, ptr %6, align 8
  br label %43, !llvm.loop !30

128:                                              ; preds = %43
  store ptr null, ptr %3, align 8
  br label %129

129:                                              ; preds = %128, %107, %24
  %130 = load ptr, ptr %3, align 8
  ret ptr %130
}